target datalayout = "e-m:e-p270:32:32-p271:32:32-p272:64:64-i64:64-i128:128-f80:128-n8:16:32:64-S128"
target triple = "x86_64-unknown-linux-gnu"

%"class.QuantLib::Settings" = type <{ %"class.QuantLib::Settings::DateProxy", i8, %"class.boost::optional", i8, [4 x i8] }>
%"class.QuantLib::Settings::DateProxy" = type { %"class.QuantLib::ObservableValue" }
%"class.QuantLib::ObservableValue" = type { %"class.QuantLib::Date", %"class.boost::shared_ptr" }
%"class.QuantLib::Date" = type { i64 }
%"class.boost::shared_ptr" = type { ptr, %"class.boost::detail::shared_count" }
%"class.boost::detail::shared_count" = type { ptr }
%"class.boost::optional" = type { %"class.boost::optional_detail::tc_optional_base" }
%"class.boost::optional_detail::tc_optional_base" = type { i8, i8 }

@__dso_handle = external hidden global i8
@_ZZN8QuantLib9SingletonINS_8SettingsESt17integral_constantIbLb0EEE8instanceEvE8instance = linkonce_odr global %"class.QuantLib::Settings" zeroinitializer, comdat, align 8
@_ZGVZN8QuantLib9SingletonINS_8SettingsESt17integral_constantIbLb0EEE8instanceEvE8instance = linkonce_odr global i64 0, comdat, align 8

; Function Attrs: inlinehint mustprogress uwtable
define linkonce_odr noundef i32 @_ZNK8QuantLib4Date9dayOfYearEv(ptr noundef nonnull align 8 dereferenceable(8) %this) #6 comdat align 2 {
entry:
  %this.addr = alloca ptr, align 8
  store ptr %this, ptr %this.addr, align 8, !tbaa !3
  %this1 = load ptr, ptr %this.addr, align 8
  %serialNumber_ = getelementptr inbounds nuw %"class.QuantLib::Date", ptr %this1, i32 0, i32 0
  %0 = load i64, ptr %serialNumber_, align 8, !tbaa !13
  %call = call noundef i32 @_ZNK8QuantLib4Date4yearEv(ptr noundef nonnull align 8 dereferenceable(8) %this1)
  %call2 = call noundef i64 @_ZN8QuantLib4Date10yearOffsetEi(i32 noundef %call)
  %sub = sub nsw i64 %0, %call2
  %conv = trunc i64 %sub to i32
  ret i32 %conv
}

; Function Attrs: mustprogress nounwind uwtable
define linkonce_odr noundef nonnull align 8 dereferenceable(8) ptr @_ZNK8QuantLib15ObservableValueINS_4DateEE5valueEv(ptr noundef nonnull align 8 dereferenceable(24) %this) #3 comdat align 2 {
entry:
  %this.addr = alloca ptr, align 8
  store ptr %this, ptr %this.addr, align 8, !tbaa !3
  %this1 = load ptr, ptr %this.addr, align 8
  %value_ = getelementptr inbounds nuw %"class.QuantLib::ObservableValue", ptr %this1, i32 0, i32 0
  ret ptr %value_
}

; Function Attrs: inlinehint mustprogress nounwind uwtable
define linkonce_odr noundef i64 @_ZNK8QuantLib4Date12serialNumberEv(ptr noundef nonnull align 8 dereferenceable(8) %this) #5 comdat align 2 {
entry:
  %this.addr = alloca ptr, align 8
  store ptr %this, ptr %this.addr, align 8, !tbaa !3
  %this1 = load ptr, ptr %this.addr, align 8
  %serialNumber_ = getelementptr inbounds nuw %"class.QuantLib::Date", ptr %this1, i32 0, i32 0
  %0 = load i64, ptr %serialNumber_, align 8, !tbaa !13
  ret i64 %0
}

; Function Attrs: inlinehint mustprogress nounwind uwtable
define linkonce_odr noundef zeroext i1 @_ZN8QuantLibleERKNS_4DateES2_(ptr noundef nonnull align 8 dereferenceable(8) %d1, ptr noundef nonnull align 8 dereferenceable(8) %d2) #5 comdat {
entry:
  %d1.addr = alloca ptr, align 8
  %d2.addr = alloca ptr, align 8
  store ptr %d1, ptr %d1.addr, align 8, !tbaa !3
  store ptr %d2, ptr %d2.addr, align 8, !tbaa !3
  %0 = load ptr, ptr %d1.addr, align 8, !tbaa !3
  %call = call noundef i64 @_ZNK8QuantLib4Date12serialNumberEv(ptr noundef nonnull align 8 dereferenceable(8) %0)
  %1 = load ptr, ptr %d2.addr, align 8, !tbaa !3
  %call1 = call noundef i64 @_ZNK8QuantLib4Date12serialNumberEv(ptr noundef nonnull align 8 dereferenceable(8) %1)
  %cmp = icmp sle i64 %call, %call1
  ret i1 %cmp
}

; Function Attrs: inlinehint mustprogress uwtable
define linkonce_odr noundef i32 @_ZNK8QuantLib4Date10dayOfMonthEv(ptr noundef nonnull align 8 dereferenceable(8) %this) #6 comdat align 2 {
entry:
  %this.addr = alloca ptr, align 8
  store ptr %this, ptr %this.addr, align 8, !tbaa !3
  %this1 = load ptr, ptr %this.addr, align 8
  %call = call noundef i32 @_ZNK8QuantLib4Date9dayOfYearEv(ptr noundef nonnull align 8 dereferenceable(8) %this1)
  %call2 = call noundef i32 @_ZNK8QuantLib4Date5monthEv(ptr noundef nonnull align 8 dereferenceable(8) %this1)
  %call3 = call noundef i32 @_ZNK8QuantLib4Date4yearEv(ptr noundef nonnull align 8 dereferenceable(8) %this1)
  %call4 = call noundef zeroext i1 @_ZN8QuantLib4Date6isLeapEi(i32 noundef %call3)
  %call5 = call noundef i32 @_ZN8QuantLib4Date11monthOffsetENS_5MonthEb(i32 noundef %call2, i1 noundef zeroext %call4)
  %sub = sub nsw i32 %call, %call5
  ret i32 %sub
}

; Function Attrs: inlinehint mustprogress uwtable
define linkonce_odr i64 @_ZNK8QuantLib8Settings9DateProxycvNS_4DateEEv(ptr noundef nonnull align 8 dereferenceable(24) %this) #6 comdat align 2 {
entry:
  %retval = alloca %"class.QuantLib::Date", align 8
  %this.addr = alloca ptr, align 8
  %ref.tmp = alloca %"class.QuantLib::Date", align 8
  store ptr %this, ptr %this.addr, align 8, !tbaa !3
  %this1 = load ptr, ptr %this.addr, align 8
  %call = call noundef nonnull align 8 dereferenceable(8) ptr @_ZNK8QuantLib15ObservableValueINS_4DateEE5valueEv(ptr noundef nonnull align 8 dereferenceable(24) %this1)
  call void @llvm.lifetime.start.p0(i64 8, ptr %ref.tmp) #10
  call void @_ZN8QuantLib4DateC1Ev(ptr noundef nonnull align 8 dereferenceable(8) %ref.tmp)
  %call2 = call noundef zeroext i1 @_ZN8QuantLibeqERKNS_4DateES2_(ptr noundef nonnull align 8 dereferenceable(8) %call, ptr noundef nonnull align 8 dereferenceable(8) %ref.tmp)
  call void @llvm.lifetime.end.p0(i64 8, ptr %ref.tmp) #10
  br i1 %call2, label %if.then, label %if.else

if.then:                                          ; preds = %entry
  %call3 = call i64 @_ZN8QuantLib4Date10todaysDateEv()
  %coerce.dive = getelementptr inbounds nuw %"class.QuantLib::Date", ptr %retval, i32 0, i32 0
  store i64 %call3, ptr %coerce.dive, align 8
  br label %return

if.else:                                          ; preds = %entry
  %call4 = call noundef nonnull align 8 dereferenceable(8) ptr @_ZNK8QuantLib15ObservableValueINS_4DateEE5valueEv(ptr noundef nonnull align 8 dereferenceable(24) %this1)
  call void @llvm.memcpy.p0.p0.i64(ptr align 8 %retval, ptr align 8 %call4, i64 8, i1 false), !tbaa.struct !23
  br label %return

return:                                           ; preds = %if.else, %if.then
  %coerce.dive5 = getelementptr inbounds nuw %"class.QuantLib::Date", ptr %retval, i32 0, i32 0
  %0 = load i64, ptr %coerce.dive5, align 8
  ret i64 %0
}

; Function Attrs: inlinehint mustprogress nounwind uwtable
define linkonce_odr noundef nonnull align 8 dereferenceable(24) ptr @_ZN8QuantLib8Settings14evaluationDateEv(ptr noundef nonnull align 8 dereferenceable(28) %this) #5 comdat align 2 {
entry:
  %this.addr = alloca ptr, align 8
  store ptr %this, ptr %this.addr, align 8, !tbaa !3
  %this1 = load ptr, ptr %this.addr, align 8
  %evaluationDate_ = getelementptr inbounds nuw %"class.QuantLib::Settings", ptr %this1, i32 0, i32 0
  ret ptr %evaluationDate_
}

; Function Attrs: mustprogress uwtable
define linkonce_odr noundef nonnull align 8 dereferenceable(28) ptr @_ZN8QuantLib9SingletonINS_8SettingsESt17integral_constantIbLb0EEE8instanceEv() #4 comdat align 2 personality ptr @__gxx_personality_v0 {
entry:
  %exn.slot = alloca ptr, align 8
  %ehselector.slot = alloca i32, align 4
  %0 = load atomic i8, ptr @_ZGVZN8QuantLib9SingletonINS_8SettingsESt17integral_constantIbLb0EEE8instanceEvE8instance acquire, align 8
  %guard.uninitialized = icmp eq i8 %0, 0
  br i1 %guard.uninitialized, label %init.check, label %init.end, !prof !26

init.check:                                       ; preds = %entry
  %1 = call i32 @__cxa_guard_acquire(ptr @_ZGVZN8QuantLib9SingletonINS_8SettingsESt17integral_constantIbLb0EEE8instanceEvE8instance) #10
  %tobool = icmp ne i32 %1, 0
  br i1 %tobool, label %init, label %init.end

init:                                             ; preds = %init.check
  invoke void @_ZN8QuantLib8SettingsC1Ev(ptr noundef nonnull align 8 dereferenceable(28) @_ZZN8QuantLib9SingletonINS_8SettingsESt17integral_constantIbLb0EEE8instanceEvE8instance)
          to label %invoke.cont unwind label %lpad

invoke.cont:                                      ; preds = %init
  %2 = call i32 @__cxa_atexit(ptr @_ZN8QuantLib8SettingsD2Ev, ptr @_ZZN8QuantLib9SingletonINS_8SettingsESt17integral_constantIbLb0EEE8instanceEvE8instance, ptr @__dso_handle) #10
  call void @__cxa_guard_release(ptr @_ZGVZN8QuantLib9SingletonINS_8SettingsESt17integral_constantIbLb0EEE8instanceEvE8instance) #10
  br label %init.end

init.end:                                         ; preds = %invoke.cont, %init.check, %entry
  ret ptr @_ZZN8QuantLib9SingletonINS_8SettingsESt17integral_constantIbLb0EEE8instanceEvE8instance

lpad:                                             ; preds = %init
  %3 = landingpad { ptr, i32 }
          cleanup
  %4 = extractvalue { ptr, i32 } %3, 0
  store ptr %4, ptr %exn.slot, align 8
  %5 = extractvalue { ptr, i32 } %3, 1
  store i32 %5, ptr %ehselector.slot, align 4
  call void @__cxa_guard_abort(ptr @_ZGVZN8QuantLib9SingletonINS_8SettingsESt17integral_constantIbLb0EEE8instanceEvE8instance) #10
  br label %eh.resume

eh.resume:                                        ; preds = %lpad
  %exn = load ptr, ptr %exn.slot, align 8
  %sel = load i32, ptr %ehselector.slot, align 4
  %lpad.val = insertvalue { ptr, i32 } poison, ptr %exn, 0
  %lpad.val1 = insertvalue { ptr, i32 } %lpad.val, i32 %sel, 1
  resume { ptr, i32 } %lpad.val1
}

; Function Attrs: inlinehint mustprogress nounwind uwtable
define linkonce_odr noundef zeroext i1 @_ZN8QuantLibeqERKNS_4DateES2_(ptr noundef nonnull align 8 dereferenceable(8) %d1, ptr noundef nonnull align 8 dereferenceable(8) %d2) #5 comdat {
entry:
  %d1.addr = alloca ptr, align 8
  %d2.addr = alloca ptr, align 8
  store ptr %d1, ptr %d1.addr, align 8, !tbaa !3
  store ptr %d2, ptr %d2.addr, align 8, !tbaa !3
  %0 = load ptr, ptr %d1.addr, align 8, !tbaa !3
  %call = call noundef i64 @_ZNK8QuantLib4Date12serialNumberEv(ptr noundef nonnull align 8 dereferenceable(8) %0)
  %1 = load ptr, ptr %d2.addr, align 8, !tbaa !3
  %call1 = call noundef i64 @_ZNK8QuantLib4Date12serialNumberEv(ptr noundef nonnull align 8 dereferenceable(8) %1)
  %cmp = icmp eq i64 %call, %call1
  ret i1 %cmp
}

; Function Attrs: mustprogress uwtable
define i64 @_ZN8QuantLib3IMM8nextDateERKNS_4DateEb(ptr noundef nonnull align 8 dereferenceable(8) %date, i1 noundef zeroext %mainCycle) #4 align 2 {
entry:
  %retval = alloca %"class.QuantLib::Date", align 8
  %date.addr = alloca ptr, align 8
  %mainCycle.addr = alloca i8, align 1
  %refDate = alloca %"class.QuantLib::Date", align 8
  %ref.tmp = alloca %"class.QuantLib::Date", align 8
  %y = alloca i32, align 4
  %m = alloca i32, align 4
  %offset = alloca i64, align 8
  %skipMonths = alloca i64, align 8
  %ref.tmp21 = alloca %"class.QuantLib::Date", align 8
  %ref.tmp22 = alloca %"class.QuantLib::Date", align 8
  store ptr %date, ptr %date.addr, align 8, !tbaa !3
  %storedv = zext i1 %mainCycle to i8
  store i8 %storedv, ptr %mainCycle.addr, align 1, !tbaa !7
  call void @llvm.lifetime.start.p0(i64 8, ptr %refDate) #10
  %0 = load ptr, ptr %date.addr, align 8, !tbaa !3
  call void @llvm.lifetime.start.p0(i64 8, ptr %ref.tmp) #10
  call void @_ZN8QuantLib4DateC1Ev(ptr noundef nonnull align 8 dereferenceable(8) %ref.tmp)
  %call = call noundef zeroext i1 @_ZN8QuantLibeqERKNS_4DateES2_(ptr noundef nonnull align 8 dereferenceable(8) %0, ptr noundef nonnull align 8 dereferenceable(8) %ref.tmp)
  br i1 %call, label %cond.true, label %cond.false

cond.true:                                        ; preds = %entry
  %call1 = call noundef nonnull align 8 dereferenceable(28) ptr @_ZN8QuantLib9SingletonINS_8SettingsESt17integral_constantIbLb0EEE8instanceEv()
  %call2 = call noundef nonnull align 8 dereferenceable(24) ptr @_ZN8QuantLib8Settings14evaluationDateEv(ptr noundef nonnull align 8 dereferenceable(28) %call1)
  %call3 = call i64 @_ZNK8QuantLib8Settings9DateProxycvNS_4DateEEv(ptr noundef nonnull align 8 dereferenceable(24) %call2)
  %coerce.dive = getelementptr inbounds nuw %"class.QuantLib::Date", ptr %refDate, i32 0, i32 0
  store i64 %call3, ptr %coerce.dive, align 8
  br label %cond.end

cond.false:                                       ; preds = %entry
  %1 = load ptr, ptr %date.addr, align 8, !tbaa !3
  call void @llvm.memcpy.p0.p0.i64(ptr align 8 %refDate, ptr align 8 %1, i64 8, i1 false), !tbaa.struct !23
  br label %cond.end

cond.end:                                         ; preds = %cond.false, %cond.true
  call void @llvm.lifetime.end.p0(i64 8, ptr %ref.tmp) #10
  call void @llvm.lifetime.start.p0(i64 4, ptr %y) #10
  %call4 = call noundef i32 @_ZNK8QuantLib4Date4yearEv(ptr noundef nonnull align 8 dereferenceable(8) %refDate)
  store i32 %call4, ptr %y, align 4, !tbaa !9
  call void @llvm.lifetime.start.p0(i64 4, ptr %m) #10
  %call5 = call noundef i32 @_ZNK8QuantLib4Date5monthEv(ptr noundef nonnull align 8 dereferenceable(8) %refDate)
  store i32 %call5, ptr %m, align 4, !tbaa !24
  call void @llvm.lifetime.start.p0(i64 8, ptr %offset) #10
  %2 = load i8, ptr %mainCycle.addr, align 1, !tbaa !7, !range !11, !noundef !12
  %loadedv = trunc i8 %2 to i1
  %cond = select i1 %loadedv, i32 3, i32 1
  %conv = sext i32 %cond to i64
  store i64 %conv, ptr %offset, align 8, !tbaa !16
  call void @llvm.lifetime.start.p0(i64 8, ptr %skipMonths) #10
  %3 = load i64, ptr %offset, align 8, !tbaa !16
  %4 = load i32, ptr %m, align 4, !tbaa !24
  %conv6 = zext i32 %4 to i64
  %5 = load i64, ptr %offset, align 8, !tbaa !16
  %rem = urem i64 %conv6, %5
  %sub = sub i64 %3, %rem
  store i64 %sub, ptr %skipMonths, align 8, !tbaa !16
  %6 = load i64, ptr %skipMonths, align 8, !tbaa !16
  %7 = load i64, ptr %offset, align 8, !tbaa !16
  %cmp = icmp ne i64 %6, %7
  br i1 %cmp, label %if.then, label %lor.lhs.false

lor.lhs.false:                                    ; preds = %cond.end
  %call7 = call noundef i32 @_ZNK8QuantLib4Date10dayOfMonthEv(ptr noundef nonnull align 8 dereferenceable(8) %refDate)
  %cmp8 = icmp sgt i32 %call7, 21
  br i1 %cmp8, label %if.then, label %if.end16

if.then:                                          ; preds = %lor.lhs.false, %cond.end
  %8 = load i32, ptr %m, align 4, !tbaa !24
  %conv9 = zext i32 %8 to i64
  %9 = load i64, ptr %skipMonths, align 8, !tbaa !16
  %add = add i64 %9, %conv9
  store i64 %add, ptr %skipMonths, align 8, !tbaa !16
  %10 = load i64, ptr %skipMonths, align 8, !tbaa !16
  %cmp10 = icmp ule i64 %10, 12
  br i1 %cmp10, label %if.then11, label %if.else

if.then11:                                        ; preds = %if.then
  %11 = load i64, ptr %skipMonths, align 8, !tbaa !16
  %conv12 = trunc i64 %11 to i32
  store i32 %conv12, ptr %m, align 4, !tbaa !24
  br label %if.end

if.else:                                          ; preds = %if.then
  %12 = load i64, ptr %skipMonths, align 8, !tbaa !16
  %sub13 = sub i64 %12, 12
  %conv14 = trunc i64 %sub13 to i32
  store i32 %conv14, ptr %m, align 4, !tbaa !24
  %13 = load i32, ptr %y, align 4, !tbaa !9
  %add15 = add nsw i32 %13, 1
  store i32 %add15, ptr %y, align 4, !tbaa !9
  br label %if.end

if.end:                                           ; preds = %if.else, %if.then11
  br label %if.end16

if.end16:                                         ; preds = %if.end, %lor.lhs.false
  %14 = load i32, ptr %m, align 4, !tbaa !24
  %15 = load i32, ptr %y, align 4, !tbaa !9
  %call17 = call i64 @_ZN8QuantLib4Date10nthWeekdayEmNS_7WeekdayENS_5MonthEi(i64 noundef 3, i32 noundef 4, i32 noundef %14, i32 noundef %15)
  %coerce.dive18 = getelementptr inbounds nuw %"class.QuantLib::Date", ptr %retval, i32 0, i32 0
  store i64 %call17, ptr %coerce.dive18, align 8
  %call19 = call noundef zeroext i1 @_ZN8QuantLibleERKNS_4DateES2_(ptr noundef nonnull align 8 dereferenceable(8) %retval, ptr noundef nonnull align 8 dereferenceable(8) %refDate)
  br i1 %call19, label %if.then20, label %if.end26

if.then20:                                        ; preds = %if.end16
  call void @llvm.lifetime.start.p0(i64 8, ptr %ref.tmp21) #10
  call void @llvm.lifetime.start.p0(i64 8, ptr %ref.tmp22) #10
  %16 = load i32, ptr %m, align 4, !tbaa !24
  %17 = load i32, ptr %y, align 4, !tbaa !9
  call void @_ZN8QuantLib4DateC1EiNS_5MonthEi(ptr noundef nonnull align 8 dereferenceable(8) %ref.tmp22, i32 noundef 22, i32 noundef %16, i32 noundef %17)
  %18 = load i8, ptr %mainCycle.addr, align 1, !tbaa !7, !range !11, !noundef !12
  %loadedv23 = trunc i8 %18 to i1
  %call24 = call i64 @_ZN8QuantLib3IMM8nextDateERKNS_4DateEb(ptr noundef nonnull align 8 dereferenceable(8) %ref.tmp22, i1 noundef zeroext %loadedv23)
  %coerce.dive25 = getelementptr inbounds nuw %"class.QuantLib::Date", ptr %ref.tmp21, i32 0, i32 0
  store i64 %call24, ptr %coerce.dive25, align 8
  call void @llvm.memcpy.p0.p0.i64(ptr align 8 %retval, ptr align 8 %ref.tmp21, i64 8, i1 false), !tbaa.struct !23
  call void @llvm.lifetime.end.p0(i64 8, ptr %ref.tmp22) #10
  call void @llvm.lifetime.end.p0(i64 8, ptr %ref.tmp21) #10
  br label %if.end26

if.end26:                                         ; preds = %if.then20, %if.end16
  call void @llvm.lifetime.end.p0(i64 8, ptr %skipMonths) #10
  call void @llvm.lifetime.end.p0(i64 8, ptr %offset) #10
  call void @llvm.lifetime.end.p0(i64 4, ptr %m) #10
  call void @llvm.lifetime.end.p0(i64 4, ptr %y) #10
  call void @llvm.lifetime.end.p0(i64 8, ptr %refDate) #10
  %coerce.dive27 = getelementptr inbounds nuw %"class.QuantLib::Date", ptr %retval, i32 0, i32 0
  %19 = load i64, ptr %coerce.dive27, align 8
  ret i64 %19
}