; Function Attrs: mustprogress uwtable
define i64 @_ZN8QuantLib3IMM8nextDateERKNS_4DateEb(ptr nocapture noundef nonnull readonly align 8 dereferenceable(8) %date, i1 noundef zeroext %mainCycle) local_unnamed_addr #3 align 2 personality ptr @__gxx_personality_v0 {
entry:
  %ref.tmp.i = alloca %"class.QuantLib::Date", align 8
  %refDate = alloca %"class.QuantLib::Date", align 8
  %ref.tmp = alloca %"class.QuantLib::Date", align 8
  %ref.tmp22 = alloca %"class.QuantLib::Date", align 8
  call void @llvm.lifetime.start.p0(i64 8, ptr nonnull %refDate) #18
  call void @llvm.lifetime.start.p0(i64 8, ptr nonnull %ref.tmp) #18
  call void @_ZN8QuantLib4DateC1Ev(ptr noundef nonnull align 8 dereferenceable(8) %ref.tmp)
  %0 = load i64, ptr %date, align 8, !tbaa !21
  %1 = load i64, ptr %ref.tmp, align 8, !tbaa !3
  %cmp.i = icmp eq i64 %0, %1
  br i1 %cmp.i, label %cond.true, label %cond.end

cond.true:                                        ; preds = %entry
  %2 = load atomic i8, ptr @_ZGVZN8QuantLib9SingletonINS_8SettingsESt17integral_constantIbLb0EEE8instanceEvE8instance acquire, align 8
  %guard.uninitialized.i = icmp eq i8 %2, 0
  br i1 %guard.uninitialized.i, label %init.check.i, label %_ZN8QuantLib9SingletonINS_8SettingsESt17integral_constantIbLb0EEE8instanceEv.exit, !prof !43

init.check.i:                                     ; preds = %cond.true
  %3 = call i32 @__cxa_guard_acquire(ptr nonnull @_ZGVZN8QuantLib9SingletonINS_8SettingsESt17integral_constantIbLb0EEE8instanceEvE8instance) #18
  %tobool.not.i = icmp eq i32 %3, 0
  br i1 %tobool.not.i, label %_ZN8QuantLib9SingletonINS_8SettingsESt17integral_constantIbLb0EEE8instanceEv.exit, label %init.i

init.i:                                           ; preds = %init.check.i
  invoke void @_ZN8QuantLib8SettingsC1Ev(ptr noundef nonnull align 8 dereferenceable(28) @_ZZN8QuantLib9SingletonINS_8SettingsESt17integral_constantIbLb0EEE8instanceEvE8instance)
          to label %invoke.cont.i unwind label %lpad.i

invoke.cont.i:                                    ; preds = %init.i
  %4 = call i32 @__cxa_atexit(ptr nonnull @_ZN8QuantLib8SettingsD2Ev, ptr nonnull @_ZZN8QuantLib9SingletonINS_8SettingsESt17integral_constantIbLb0EEE8instanceEvE8instance, ptr nonnull @__dso_handle) #18
  call void @__cxa_guard_release(ptr nonnull @_ZGVZN8QuantLib9SingletonINS_8SettingsESt17integral_constantIbLb0EEE8instanceEvE8instance) #18
  br label %_ZN8QuantLib9SingletonINS_8SettingsESt17integral_constantIbLb0EEE8instanceEv.exit

lpad.i:                                           ; preds = %init.i
  %5 = landingpad { ptr, i32 }
          cleanup
  call void @__cxa_guard_abort(ptr nonnull @_ZGVZN8QuantLib9SingletonINS_8SettingsESt17integral_constantIbLb0EEE8instanceEvE8instance) #18
  resume { ptr, i32 } %5

_ZN8QuantLib9SingletonINS_8SettingsESt17integral_constantIbLb0EEE8instanceEv.exit: ; preds = %cond.true, %init.check.i, %invoke.cont.i
  call void @llvm.lifetime.start.p0(i64 8, ptr nonnull %ref.tmp.i) #18
  call void @_ZN8QuantLib4DateC1Ev(ptr noundef nonnull align 8 dereferenceable(8) %ref.tmp.i)
  %6 = load i64, ptr @_ZZN8QuantLib9SingletonINS_8SettingsESt17integral_constantIbLb0EEE8instanceEvE8instance, align 8, !tbaa !21
  %7 = load i64, ptr %ref.tmp.i, align 8, !tbaa !3
  %cmp.i.i = icmp eq i64 %6, %7
  call void @llvm.lifetime.end.p0(i64 8, ptr nonnull %ref.tmp.i) #18
  br i1 %cmp.i.i, label %if.then.i, label %cond.end

if.then.i:                                        ; preds = %_ZN8QuantLib9SingletonINS_8SettingsESt17integral_constantIbLb0EEE8instanceEv.exit
  %call3.i = call i64 @_ZN8QuantLib4Date10todaysDateEv()
  br label %cond.end

cond.end:                                         ; preds = %entry, %if.then.i, %_ZN8QuantLib9SingletonINS_8SettingsESt17integral_constantIbLb0EEE8instanceEv.exit
  %storemerge = phi i64 [ %call3.i, %if.then.i ], [ %6, %_ZN8QuantLib9SingletonINS_8SettingsESt17integral_constantIbLb0EEE8instanceEv.exit ], [ %0, %entry ]
  store i64 %storemerge, ptr %refDate, align 8
  call void @llvm.lifetime.end.p0(i64 8, ptr nonnull %ref.tmp) #18
  %call4 = call noundef i32 @_ZNK8QuantLib4Date4yearEv(ptr noundef nonnull align 8 dereferenceable(8) %refDate)
  %call5 = call noundef i32 @_ZNK8QuantLib4Date5monthEv(ptr noundef nonnull align 8 dereferenceable(8) %refDate)
  %conv = select i1 %mainCycle, i64 3, i64 1
  %conv6 = zext i32 %call5 to i64
  %rem.rhs.trunc = trunc nuw nsw i64 %conv to i32
  %rem17 = urem i32 %call5, %rem.rhs.trunc
  %rem.zext = zext nneg i32 %rem17 to i64
  %sub = sub nsw i64 %conv, %rem.zext
  %cmp.not = icmp eq i32 %rem17, 0
  br i1 %cmp.not, label %lor.lhs.false, label %if.then

lor.lhs.false:                                    ; preds = %cond.end
  %8 = load i64, ptr %refDate, align 8, !tbaa !3
  %call.i.i = call noundef i32 @_ZNK8QuantLib4Date4yearEv(ptr noundef nonnull align 8 dereferenceable(8) %refDate)
  %call2.i.i = call noundef i64 @_ZN8QuantLib4Date10yearOffsetEi(i32 noundef %call.i.i)
  %sub.i.i = sub nsw i64 %8, %call2.i.i
  %conv.i.i = trunc i64 %sub.i.i to i32
  %call2.i = call noundef i32 @_ZNK8QuantLib4Date5monthEv(ptr noundef nonnull align 8 dereferenceable(8) %refDate)
  %call3.i14 = call noundef i32 @_ZNK8QuantLib4Date4yearEv(ptr noundef nonnull align 8 dereferenceable(8) %refDate)
  %call4.i = call noundef zeroext i1 @_ZN8QuantLib4Date6isLeapEi(i32 noundef %call3.i14)
  %call5.i = call noundef i32 @_ZN8QuantLib4Date11monthOffsetENS_5MonthEb(i32 noundef %call2.i, i1 noundef zeroext %call4.i)
  %sub.i = sub nsw i32 %conv.i.i, %call5.i
  %cmp8 = icmp sgt i32 %sub.i, 21
  br i1 %cmp8, label %if.then, label %if.end16

if.then:                                          ; preds = %lor.lhs.false, %cond.end
  %add = add nsw i64 %sub, %conv6
  %cmp10 = icmp ult i64 %add, 13
  %conv12 = trunc i64 %add to i32
  br i1 %cmp10, label %if.end16, label %if.else

if.else:                                          ; preds = %if.then
  %conv14 = add i32 %conv12, -12
  %add15 = add nsw i32 %call4, 1
  br label %if.end16

if.end16:                                         ; preds = %if.then, %if.else, %lor.lhs.false
  %m.0 = phi i32 [ %conv14, %if.else ], [ %call5, %lor.lhs.false ], [ %conv12, %if.then ]
  %y.0 = phi i32 [ %add15, %if.else ], [ %call4, %lor.lhs.false ], [ %call4, %if.then ]
  %call17 = call i64 @_ZN8QuantLib4Date10nthWeekdayEmNS_7WeekdayENS_5MonthEi(i64 noundef 3, i32 noundef 4, i32 noundef %m.0, i32 noundef %y.0)
  %9 = load i64, ptr %refDate, align 8, !tbaa !3
  %cmp.i15.not = icmp sgt i64 %call17, %9
  br i1 %cmp.i15.not, label %if.end26, label %if.then20

if.then20:                                        ; preds = %if.end16
  call void @llvm.lifetime.start.p0(i64 8, ptr nonnull %ref.tmp22) #18
  call void @_ZN8QuantLib4DateC1EiNS_5MonthEi(ptr noundef nonnull align 8 dereferenceable(8) %ref.tmp22, i32 noundef 22, i32 noundef %m.0, i32 noundef %y.0)
  %call24 = call i64 @_ZN8QuantLib3IMM8nextDateERKNS_4DateEb(ptr noundef nonnull align 8 dereferenceable(8) %ref.tmp22, i1 noundef zeroext %mainCycle)
  call void @llvm.lifetime.end.p0(i64 8, ptr nonnull %ref.tmp22) #18
  br label %if.end26

if.end26:                                         ; preds = %if.then20, %if.end16
  %retval.sroa.0.0 = phi i64 [ %call24, %if.then20 ], [ %call17, %if.end16 ]
  call void @llvm.lifetime.end.p0(i64 8, ptr nonnull %refDate) #18
  ret i64 %retval.sroa.0.0
}